target datalayout = "e-m:e-p270:32:32-p271:32:32-p272:64:64-i64:64-i128:128-f80:128-n8:16:32:64-S128"
target triple = "x86_64-pc-linux-gnu"

%"class.llvm::APInt" = type <{ %union.anon.342, i32, [4 x i8] }>
%union.anon.342 = type { i64 }
%"struct.(anonymous namespace)::ChainElem" = type { ptr, %"class.llvm::APInt" }
%"struct.__gnu_cxx::__ops::_Iter_comp_iter" = type { i8 }
%"struct.__gnu_cxx::__ops::_Val_comp_iter" = type { i8 }

; Function Attrs: mustprogress nounwind uwtable
define internal noundef ptr @_ZNSt20__copy_move_backwardILb1ELb0ESt26random_access_iterator_tagE13__copy_move_bIPN12_GLOBAL__N_19ChainElemES5_EET0_T_S7_S6_(ptr noundef %0, ptr noundef %1, ptr noundef %2) #1 align 2 {
  %4 = alloca ptr, align 8
  %5 = alloca ptr, align 8
  %6 = alloca ptr, align 8
  %7 = alloca i64, align 8
  store ptr %0, ptr %4, align 8
  store ptr %1, ptr %5, align 8
  store ptr %2, ptr %6, align 8
  %8 = load ptr, ptr %5, align 8
  %9 = load ptr, ptr %4, align 8
  %10 = ptrtoint ptr %8 to i64
  %11 = ptrtoint ptr %9 to i64
  %12 = sub i64 %10, %11
  %13 = sdiv exact i64 %12, 24
  store i64 %13, ptr %7, align 8
  br label %14

14:                                               ; preds = %23, %3
  %15 = load i64, ptr %7, align 8
  %16 = icmp sgt i64 %15, 0
  br i1 %16, label %17, label %26

17:                                               ; preds = %14
  %18 = load ptr, ptr %5, align 8
  %19 = getelementptr inbounds %"struct.(anonymous namespace)::ChainElem", ptr %18, i32 -1
  store ptr %19, ptr %5, align 8
  %20 = load ptr, ptr %6, align 8
  %21 = getelementptr inbounds %"struct.(anonymous namespace)::ChainElem", ptr %20, i32 -1
  store ptr %21, ptr %6, align 8
  %22 = call noundef nonnull align 8 dereferenceable(24) ptr @_ZN12_GLOBAL__N_19ChainElemaSEOS0_(ptr noundef nonnull align 8 dereferenceable(24) %21, ptr noundef nonnull align 8 dereferenceable(24) %19)
  br label %23

23:                                               ; preds = %17
  %24 = load i64, ptr %7, align 8
  %25 = add nsw i64 %24, -1
  store i64 %25, ptr %7, align 8
  br label %14, !llvm.loop !61

26:                                               ; preds = %14
  %27 = load ptr, ptr %6, align 8
  ret ptr %27
}

; Function Attrs: mustprogress nounwind uwtable
define internal noundef ptr @_ZSt23__copy_move_backward_a2ILb1EPN12_GLOBAL__N_19ChainElemES2_ET1_T0_S4_S3_(ptr noundef %0, ptr noundef %1, ptr noundef %2) #1 {
  %4 = alloca ptr, align 8
  %5 = alloca ptr, align 8
  %6 = alloca ptr, align 8
  store ptr %0, ptr %4, align 8
  store ptr %1, ptr %5, align 8
  store ptr %2, ptr %6, align 8
  %7 = load ptr, ptr %4, align 8
  %8 = load ptr, ptr %5, align 8
  %9 = load ptr, ptr %6, align 8
  %10 = call noundef ptr @_ZNSt20__copy_move_backwardILb1ELb0ESt26random_access_iterator_tagE13__copy_move_bIPN12_GLOBAL__N_19ChainElemES5_EET0_T_S7_S6_(ptr noundef %7, ptr noundef %8, ptr noundef %9)
  ret ptr %10
}

; Function Attrs: mustprogress nounwind uwtable
define linkonce_odr hidden noundef zeroext i1 @_ZNK4llvm5APInt12needsCleanupEv(ptr noundef nonnull align 8 dereferenceable(12) %0) #1 comdat align 2 {
  %2 = alloca ptr, align 8
  store ptr %0, ptr %2, align 8
  %3 = load ptr, ptr %2, align 8
  %4 = call noundef zeroext i1 @_ZNK4llvm5APInt12isSingleWordEv(ptr noundef nonnull align 8 dereferenceable(12) %3)
  %5 = xor i1 %4, true
  ret i1 %5
}

; Function Attrs: mustprogress nounwind uwtable
define linkonce_odr hidden noundef zeroext i1 @_ZNK4llvm5APInt12isSingleWordEv(ptr noundef nonnull align 8 dereferenceable(12) %0) #1 comdat align 2 {
  %2 = alloca ptr, align 8
  store ptr %0, ptr %2, align 8
  %3 = load ptr, ptr %2, align 8
  %4 = getelementptr inbounds nuw %"class.llvm::APInt", ptr %3, i32 0, i32 1
  %5 = load i32, ptr %4, align 8
  %6 = icmp ule i32 %5, 64
  ret i1 %6
}

; Function Attrs: mustprogress nounwind uwtable
define internal noundef ptr @_ZSt12__niter_wrapIPN12_GLOBAL__N_19ChainElemEET_RKS3_S3_(ptr noundef nonnull align 8 dereferenceable(8) %0, ptr noundef %1) #1 {
  %3 = alloca ptr, align 8
  %4 = alloca ptr, align 8
  store ptr %0, ptr %3, align 8
  store ptr %1, ptr %4, align 8
  %5 = load ptr, ptr %4, align 8
  ret ptr %5
}

; Function Attrs: mustprogress nounwind uwtable
define internal noundef ptr @_ZSt23__copy_move_backward_a1ILb1EPN12_GLOBAL__N_19ChainElemES2_ET1_T0_S4_S3_(ptr noundef %0, ptr noundef %1, ptr noundef %2) #1 {
  %4 = alloca ptr, align 8
  %5 = alloca ptr, align 8
  %6 = alloca ptr, align 8
  store ptr %0, ptr %4, align 8
  store ptr %1, ptr %5, align 8
  store ptr %2, ptr %6, align 8
  %7 = load ptr, ptr %4, align 8
  %8 = load ptr, ptr %5, align 8
  %9 = load ptr, ptr %6, align 8
  %10 = call noundef ptr @_ZSt23__copy_move_backward_a2ILb1EPN12_GLOBAL__N_19ChainElemES2_ET1_T0_S4_S3_(ptr noundef %7, ptr noundef %8, ptr noundef %9)
  ret ptr %10
}

; Function Attrs: mustprogress nounwind uwtable
define internal noundef ptr @_ZSt12__niter_baseIPN12_GLOBAL__N_19ChainElemEET_S3_(ptr noundef %0) #1 {
  %2 = alloca ptr, align 8
  store ptr %0, ptr %2, align 8
  %3 = load ptr, ptr %2, align 8
  ret ptr %3
}

; Function Attrs: mustprogress nounwind uwtable
define internal void @"_ZN9__gnu_cxx5__ops14_Val_comp_iterIZN12_GLOBAL__N_118sortChainInBBOrderERN4llvm11SmallVectorINS2_9ChainElemELj1EEEE3$_0EC2EONS0_15_Iter_comp_iterIS8_EE"(ptr noundef nonnull align 1 dereferenceable(1) %0, ptr noundef nonnull align 1 dereferenceable(1) %1) unnamed_addr #1 align 2 {
  %3 = alloca ptr, align 8
  %4 = alloca ptr, align 8
  store ptr %0, ptr %3, align 8
  store ptr %1, ptr %4, align 8
  ret void
}

; Function Attrs: mustprogress nounwind uwtable
define linkonce_odr hidden void @_ZN4llvm5APIntD2Ev(ptr noundef nonnull align 8 dereferenceable(12) %0) unnamed_addr #1 comdat align 2 {
  %2 = alloca ptr, align 8
  store ptr %0, ptr %2, align 8
  %3 = load ptr, ptr %2, align 8
  %4 = call noundef zeroext i1 @_ZNK4llvm5APInt12needsCleanupEv(ptr noundef nonnull align 8 dereferenceable(12) %3)
  br i1 %4, label %5, label %11

5:                                                ; preds = %1
  %6 = getelementptr inbounds nuw %"class.llvm::APInt", ptr %3, i32 0, i32 0
  %7 = load ptr, ptr %6, align 8
  %8 = icmp eq ptr %7, null
  br i1 %8, label %10, label %9

9:                                                ; preds = %5
  call void @_ZdaPv(ptr noundef %7) #17
  br label %10

10:                                               ; preds = %9, %5
  br label %11

11:                                               ; preds = %10, %1
  ret void
}

; Function Attrs: mustprogress nounwind uwtable
define linkonce_odr hidden noundef nonnull align 8 dereferenceable(12) ptr @_ZN4llvm5APIntaSEOS0_(ptr noundef nonnull align 8 dereferenceable(12) %0, ptr noundef nonnull align 8 dereferenceable(12) %1) #1 comdat align 2 {
  %3 = alloca ptr, align 8
  %4 = alloca ptr, align 8
  store ptr %0, ptr %3, align 8
  store ptr %1, ptr %4, align 8
  %5 = load ptr, ptr %3, align 8
  %6 = call noundef zeroext i1 @_ZNK4llvm5APInt12isSingleWordEv(ptr noundef nonnull align 8 dereferenceable(12) %5)
  br i1 %6, label %13, label %7

7:                                                ; preds = %2
  %8 = getelementptr inbounds nuw %"class.llvm::APInt", ptr %5, i32 0, i32 0
  %9 = load ptr, ptr %8, align 8
  %10 = icmp eq ptr %9, null
  br i1 %10, label %12, label %11

11:                                               ; preds = %7
  call void @_ZdaPv(ptr noundef %9) #17
  br label %12

12:                                               ; preds = %11, %7
  br label %13

13:                                               ; preds = %12, %2
  %14 = getelementptr inbounds nuw %"class.llvm::APInt", ptr %5, i32 0, i32 0
  %15 = load ptr, ptr %4, align 8
  %16 = getelementptr inbounds nuw %"class.llvm::APInt", ptr %15, i32 0, i32 0
  call void @llvm.memcpy.p0.p0.i64(ptr align 8 %14, ptr align 8 %16, i64 8, i1 false)
  %17 = load ptr, ptr %4, align 8
  %18 = getelementptr inbounds nuw %"class.llvm::APInt", ptr %17, i32 0, i32 1
  %19 = load i32, ptr %18, align 8
  %20 = getelementptr inbounds nuw %"class.llvm::APInt", ptr %5, i32 0, i32 1
  store i32 %19, ptr %20, align 8
  %21 = load ptr, ptr %4, align 8
  %22 = getelementptr inbounds nuw %"class.llvm::APInt", ptr %21, i32 0, i32 1
  store i32 0, ptr %22, align 8
  ret ptr %5
}

; Function Attrs: mustprogress nounwind uwtable
define internal noundef ptr @_ZSt22__copy_move_backward_aILb1EPN12_GLOBAL__N_19ChainElemES2_ET1_T0_S4_S3_(ptr noundef %0, ptr noundef %1, ptr noundef %2) #1 {
  %4 = alloca ptr, align 8
  %5 = alloca ptr, align 8
  %6 = alloca ptr, align 8
  store ptr %0, ptr %4, align 8
  store ptr %1, ptr %5, align 8
  store ptr %2, ptr %6, align 8
  %7 = load ptr, ptr %4, align 8
  %8 = call noundef ptr @_ZSt12__niter_baseIPN12_GLOBAL__N_19ChainElemEET_S3_(ptr noundef %7) #15
  %9 = load ptr, ptr %5, align 8
  %10 = call noundef ptr @_ZSt12__niter_baseIPN12_GLOBAL__N_19ChainElemEET_S3_(ptr noundef %9) #15
  %11 = load ptr, ptr %6, align 8
  %12 = call noundef ptr @_ZSt12__niter_baseIPN12_GLOBAL__N_19ChainElemEET_S3_(ptr noundef %11) #15
  %13 = call noundef ptr @_ZSt23__copy_move_backward_a1ILb1EPN12_GLOBAL__N_19ChainElemES2_ET1_T0_S4_S3_(ptr noundef %8, ptr noundef %10, ptr noundef %12)
  %14 = call noundef ptr @_ZSt12__niter_wrapIPN12_GLOBAL__N_19ChainElemEET_RKS3_S3_(ptr noundef nonnull align 8 dereferenceable(8) %6, ptr noundef %13)
  ret ptr %14
}

; Function Attrs: mustprogress nounwind uwtable
define internal noundef ptr @_ZSt12__miter_baseIPN12_GLOBAL__N_19ChainElemEET_S3_(ptr noundef %0) #1 {
  %2 = alloca ptr, align 8
  store ptr %0, ptr %2, align 8
  %3 = load ptr, ptr %2, align 8
  ret ptr %3
}

; Function Attrs: mustprogress nounwind uwtable
define linkonce_odr hidden void @_ZN4llvm5APIntC2EOS0_(ptr noundef nonnull align 8 dereferenceable(12) %0, ptr noundef nonnull align 8 dereferenceable(12) %1) unnamed_addr #1 comdat align 2 {
  %3 = alloca ptr, align 8
  %4 = alloca ptr, align 8
  store ptr %0, ptr %3, align 8
  store ptr %1, ptr %4, align 8
  %5 = load ptr, ptr %3, align 8
  %6 = getelementptr inbounds nuw %"class.llvm::APInt", ptr %5, i32 0, i32 1
  %7 = load ptr, ptr %4, align 8
  %8 = getelementptr inbounds nuw %"class.llvm::APInt", ptr %7, i32 0, i32 1
  %9 = load i32, ptr %8, align 8
  store i32 %9, ptr %6, align 8
  %10 = getelementptr inbounds nuw %"class.llvm::APInt", ptr %5, i32 0, i32 0
  %11 = load ptr, ptr %4, align 8
  %12 = getelementptr inbounds nuw %"class.llvm::APInt", ptr %11, i32 0, i32 0
  call void @llvm.memcpy.p0.p0.i64(ptr align 8 %10, ptr align 8 %12, i64 8, i1 false)
  %13 = load ptr, ptr %4, align 8
  %14 = getelementptr inbounds nuw %"class.llvm::APInt", ptr %13, i32 0, i32 1
  store i32 0, ptr %14, align 8
  ret void
}

; Function Attrs: mustprogress nounwind uwtable
define internal noundef zeroext i1 @"_ZZN12_GLOBAL__N_118sortChainInBBOrderERN4llvm11SmallVectorINS_9ChainElemELj1EEEENK3$_0clIS2_S2_EEDaRT_RT0_"(ptr noundef nonnull align 1 dereferenceable(1) %0, ptr noundef nonnull align 8 dereferenceable(24) %1, ptr noundef nonnull align 8 dereferenceable(24) %2) #1 align 2 {
  %4 = alloca ptr, align 8
  %5 = alloca ptr, align 8
  %6 = alloca ptr, align 8
  store ptr %0, ptr %4, align 8
  store ptr %1, ptr %5, align 8
  store ptr %2, ptr %6, align 8
  %7 = load ptr, ptr %5, align 8
  %8 = getelementptr inbounds nuw %"struct.(anonymous namespace)::ChainElem", ptr %7, i32 0, i32 0
  %9 = load ptr, ptr %8, align 8
  %10 = load ptr, ptr %6, align 8
  %11 = getelementptr inbounds nuw %"struct.(anonymous namespace)::ChainElem", ptr %10, i32 0, i32 0
  %12 = load ptr, ptr %11, align 8
  %13 = call noundef zeroext i1 @_ZNK4llvm11Instruction11comesBeforeEPKS0_(ptr noundef nonnull align 8 dereferenceable(72) %9, ptr noundef %12)
  ret i1 %13
}

; Function Attrs: mustprogress nounwind uwtable
define internal void @"_ZN9__gnu_cxx5__ops15__val_comp_iterIZN12_GLOBAL__N_118sortChainInBBOrderERN4llvm11SmallVectorINS2_9ChainElemELj1EEEE3$_0EENS0_14_Val_comp_iterIT_EENS0_15_Iter_comp_iterISA_EE"() #1 {
  %1 = alloca %"struct.__gnu_cxx::__ops::_Val_comp_iter", align 1
  %2 = alloca %"struct.__gnu_cxx::__ops::_Iter_comp_iter", align 1
  call void @"_ZN9__gnu_cxx5__ops14_Val_comp_iterIZN12_GLOBAL__N_118sortChainInBBOrderERN4llvm11SmallVectorINS2_9ChainElemELj1EEEE3$_0EC2EONS0_15_Iter_comp_iterIS8_EE"(ptr noundef nonnull align 1 dereferenceable(1) %1, ptr noundef nonnull align 1 dereferenceable(1) %2)
  ret void
}

; Function Attrs: mustprogress nounwind uwtable
define internal void @_ZN12_GLOBAL__N_19ChainElemD2Ev(ptr noundef nonnull align 8 dereferenceable(24) %0) unnamed_addr #1 align 2 {
  %2 = alloca ptr, align 8
  store ptr %0, ptr %2, align 8
  %3 = load ptr, ptr %2, align 8
  %4 = getelementptr inbounds nuw %"struct.(anonymous namespace)::ChainElem", ptr %3, i32 0, i32 1
  call void @_ZN4llvm5APIntD2Ev(ptr noundef nonnull align 8 dereferenceable(12) %4) #15
  ret void
}

; Function Attrs: mustprogress nounwind uwtable
define internal noundef nonnull align 8 dereferenceable(24) ptr @_ZN12_GLOBAL__N_19ChainElemaSEOS0_(ptr noundef nonnull align 8 dereferenceable(24) %0, ptr noundef nonnull align 8 dereferenceable(24) %1) #1 align 2 {
  %3 = alloca ptr, align 8
  %4 = alloca ptr, align 8
  store ptr %0, ptr %3, align 8
  store ptr %1, ptr %4, align 8
  %5 = load ptr, ptr %3, align 8
  %6 = load ptr, ptr %4, align 8
  %7 = getelementptr inbounds nuw %"struct.(anonymous namespace)::ChainElem", ptr %6, i32 0, i32 0
  %8 = load ptr, ptr %7, align 8
  %9 = getelementptr inbounds nuw %"struct.(anonymous namespace)::ChainElem", ptr %5, i32 0, i32 0
  store ptr %8, ptr %9, align 8
  %10 = getelementptr inbounds nuw %"struct.(anonymous namespace)::ChainElem", ptr %5, i32 0, i32 1
  %11 = load ptr, ptr %4, align 8
  %12 = getelementptr inbounds nuw %"struct.(anonymous namespace)::ChainElem", ptr %11, i32 0, i32 1
  %13 = call noundef nonnull align 8 dereferenceable(12) ptr @_ZN4llvm5APIntaSEOS0_(ptr noundef nonnull align 8 dereferenceable(12) %10, ptr noundef nonnull align 8 dereferenceable(12) %12)
  ret ptr %5
}

; Function Attrs: mustprogress nounwind uwtable
define internal noundef ptr @_ZSt13move_backwardIPN12_GLOBAL__N_19ChainElemES2_ET0_T_S4_S3_(ptr noundef %0, ptr noundef %1, ptr noundef %2) #1 {
  %4 = alloca ptr, align 8
  %5 = alloca ptr, align 8
  %6 = alloca ptr, align 8
  store ptr %0, ptr %4, align 8
  store ptr %1, ptr %5, align 8
  store ptr %2, ptr %6, align 8
  %7 = load ptr, ptr %4, align 8
  %8 = call noundef ptr @_ZSt12__miter_baseIPN12_GLOBAL__N_19ChainElemEET_S3_(ptr noundef %7)
  %9 = load ptr, ptr %5, align 8
  %10 = call noundef ptr @_ZSt12__miter_baseIPN12_GLOBAL__N_19ChainElemEET_S3_(ptr noundef %9)
  %11 = load ptr, ptr %6, align 8
  %12 = call noundef ptr @_ZSt22__copy_move_backward_aILb1EPN12_GLOBAL__N_19ChainElemES2_ET1_T0_S4_S3_(ptr noundef %8, ptr noundef %10, ptr noundef %11)
  ret ptr %12
}

; Function Attrs: mustprogress nounwind uwtable
define internal void @_ZN12_GLOBAL__N_19ChainElemC2EOS0_(ptr noundef nonnull align 8 dereferenceable(24) %0, ptr noundef nonnull align 8 dereferenceable(24) %1) unnamed_addr #1 align 2 {
  %3 = alloca ptr, align 8
  %4 = alloca ptr, align 8
  store ptr %0, ptr %3, align 8
  store ptr %1, ptr %4, align 8
  %5 = load ptr, ptr %3, align 8
  %6 = getelementptr inbounds nuw %"struct.(anonymous namespace)::ChainElem", ptr %5, i32 0, i32 0
  %7 = load ptr, ptr %4, align 8
  %8 = getelementptr inbounds nuw %"struct.(anonymous namespace)::ChainElem", ptr %7, i32 0, i32 0
  %9 = load ptr, ptr %8, align 8
  store ptr %9, ptr %6, align 8
  %10 = getelementptr inbounds nuw %"struct.(anonymous namespace)::ChainElem", ptr %5, i32 0, i32 1
  %11 = load ptr, ptr %4, align 8
  %12 = getelementptr inbounds nuw %"struct.(anonymous namespace)::ChainElem", ptr %11, i32 0, i32 1
  call void @_ZN4llvm5APIntC2EOS0_(ptr noundef nonnull align 8 dereferenceable(12) %10, ptr noundef nonnull align 8 dereferenceable(12) %12)
  ret void
}

; Function Attrs: mustprogress nounwind uwtable
define internal noundef zeroext i1 @"_ZN9__gnu_cxx5__ops15_Iter_comp_iterIZN12_GLOBAL__N_118sortChainInBBOrderERN4llvm11SmallVectorINS2_9ChainElemELj1EEEE3$_0EclIPS5_SB_EEbT_T0_"(ptr noundef nonnull align 1 dereferenceable(1) %0, ptr noundef %1, ptr noundef %2) #1 align 2 {
  %4 = alloca ptr, align 8
  %5 = alloca ptr, align 8
  %6 = alloca ptr, align 8
  store ptr %0, ptr %4, align 8
  store ptr %1, ptr %5, align 8
  store ptr %2, ptr %6, align 8
  %7 = load ptr, ptr %4, align 8
  %8 = load ptr, ptr %5, align 8
  %9 = load ptr, ptr %6, align 8
  %10 = call noundef zeroext i1 @"_ZZN12_GLOBAL__N_118sortChainInBBOrderERN4llvm11SmallVectorINS_9ChainElemELj1EEEENK3$_0clIS2_S2_EEDaRT_RT0_"(ptr noundef nonnull align 1 dereferenceable(1) %7, ptr noundef nonnull align 8 dereferenceable(24) %8, ptr noundef nonnull align 8 dereferenceable(24) %9)
  ret i1 %10
}

; Function Attrs: mustprogress nounwind uwtable
define internal void @"_ZSt16__insertion_sortIPN12_GLOBAL__N_19ChainElemEN9__gnu_cxx5__ops15_Iter_comp_iterIZNS0_18sortChainInBBOrderERN4llvm11SmallVectorIS1_Lj1EEEE3$_0EEEvT_SC_T0_"(ptr noundef %0, ptr noundef %1) #1 {
  %3 = alloca %"struct.__gnu_cxx::__ops::_Iter_comp_iter", align 1
  %4 = alloca ptr, align 8
  %5 = alloca ptr, align 8
  %6 = alloca ptr, align 8
  %7 = alloca %"struct.(anonymous namespace)::ChainElem", align 8
  %8 = alloca %"struct.__gnu_cxx::__ops::_Iter_comp_iter", align 1
  store ptr %0, ptr %4, align 8
  store ptr %1, ptr %5, align 8
  %9 = load ptr, ptr %4, align 8
  %10 = load ptr, ptr %5, align 8
  %11 = icmp eq ptr %9, %10
  br i1 %11, label %12, label %13

12:                                               ; preds = %2
  br label %39

13:                                               ; preds = %2
  %14 = load ptr, ptr %4, align 8
  %15 = getelementptr inbounds %"struct.(anonymous namespace)::ChainElem", ptr %14, i64 1
  store ptr %15, ptr %6, align 8
  br label %16

16:                                               ; preds = %36, %13
  %17 = load ptr, ptr %6, align 8
  %18 = load ptr, ptr %5, align 8
  %19 = icmp ne ptr %17, %18
  br i1 %19, label %20, label %39

20:                                               ; preds = %16
  %21 = load ptr, ptr %6, align 8
  %22 = load ptr, ptr %4, align 8
  %23 = call noundef zeroext i1 @"_ZN9__gnu_cxx5__ops15_Iter_comp_iterIZN12_GLOBAL__N_118sortChainInBBOrderERN4llvm11SmallVectorINS2_9ChainElemELj1EEEE3$_0EclIPS5_SB_EEbT_T0_"(ptr noundef nonnull align 1 dereferenceable(1) %3, ptr noundef %21, ptr noundef %22)
  br i1 %23, label %24, label %33

24:                                               ; preds = %20
  %25 = load ptr, ptr %6, align 8
  call void @_ZN12_GLOBAL__N_19ChainElemC2EOS0_(ptr noundef nonnull align 8 dereferenceable(24) %7, ptr noundef nonnull align 8 dereferenceable(24) %25)
  %26 = load ptr, ptr %4, align 8
  %27 = load ptr, ptr %6, align 8
  %28 = load ptr, ptr %6, align 8
  %29 = getelementptr inbounds %"struct.(anonymous namespace)::ChainElem", ptr %28, i64 1
  %30 = call noundef ptr @_ZSt13move_backwardIPN12_GLOBAL__N_19ChainElemES2_ET0_T_S4_S3_(ptr noundef %26, ptr noundef %27, ptr noundef %29)
  %31 = load ptr, ptr %4, align 8
  %32 = call noundef nonnull align 8 dereferenceable(24) ptr @_ZN12_GLOBAL__N_19ChainElemaSEOS0_(ptr noundef nonnull align 8 dereferenceable(24) %31, ptr noundef nonnull align 8 dereferenceable(24) %7)
  call void @_ZN12_GLOBAL__N_19ChainElemD2Ev(ptr noundef nonnull align 8 dereferenceable(24) %7) #15
  br label %35

33:                                               ; preds = %20
  %34 = load ptr, ptr %6, align 8
  call void @llvm.memcpy.p0.p0.i64(ptr align 1 %8, ptr align 1 %3, i64 1, i1 false)
  call void @"_ZN9__gnu_cxx5__ops15__val_comp_iterIZN12_GLOBAL__N_118sortChainInBBOrderERN4llvm11SmallVectorINS2_9ChainElemELj1EEEE3$_0EENS0_14_Val_comp_iterIT_EENS0_15_Iter_comp_iterISA_EE"()
  call void @"_ZSt25__unguarded_linear_insertIPN12_GLOBAL__N_19ChainElemEN9__gnu_cxx5__ops14_Val_comp_iterIZNS0_18sortChainInBBOrderERN4llvm11SmallVectorIS1_Lj1EEEE3$_0EEEvT_T0_"(ptr noundef %34)
  br label %35

35:                                               ; preds = %33, %24
  br label %36

36:                                               ; preds = %35
  %37 = load ptr, ptr %6, align 8
  %38 = getelementptr inbounds %"struct.(anonymous namespace)::ChainElem", ptr %37, i32 1
  store ptr %38, ptr %6, align 8
  br label %16, !llvm.loop !58

39:                                               ; preds = %16, %12
  ret void
}