; Function Attrs: mustprogress nounwind uwtable
define internal fastcc void @"_ZSt16__insertion_sortIPN12_GLOBAL__N_19ChainElemEN9__gnu_cxx5__ops15_Iter_comp_iterIZNS0_18sortChainInBBOrderERN4llvm11SmallVectorIS1_Lj1EEEE3$_0EEEvT_SC_T0_"(ptr noundef %0, ptr noundef readnone %1) unnamed_addr #0 {
  %3 = icmp eq ptr %0, %1
  br i1 %3, label %.loopexit, label %.preheader

.preheader:                                       ; preds = %2
  %.019 = getelementptr inbounds i8, ptr %0, i64 24
  %.not20 = icmp eq ptr %.019, %1
  br i1 %.not20, label %.loopexit, label %.lr.ph

.lr.ph:                                           ; preds = %.preheader
  %4 = ptrtoint ptr %0 to i64
  %5 = getelementptr inbounds nuw i8, ptr %0, i64 8
  %6 = getelementptr inbounds i8, ptr %0, i64 16
  br label %7

7:                                                ; preds = %.lr.ph, %44
  %.022 = phi ptr [ %.019, %.lr.ph ], [ %.0, %44 ]
  %.pn21 = phi ptr [ %0, %.lr.ph ], [ %.022, %44 ]
  %.0.val = load ptr, ptr %.022, align 8
  %.val17 = load ptr, ptr %0, align 8
  %8 = tail call noundef zeroext i1 @_ZNK4llvm11Instruction11comesBeforeEPKS0_(ptr noundef nonnull align 8 dereferenceable(72) %.0.val, ptr noundef %.val17) #17
  br i1 %8, label %9, label %43

9:                                                ; preds = %7
  %10 = load ptr, ptr %.022, align 8
  %11 = getelementptr inbounds i8, ptr %.pn21, i64 32
  %12 = getelementptr inbounds i8, ptr %.pn21, i64 40
  %13 = load i32, ptr %12, align 8
  %14 = load i64, ptr %11, align 8
  store i32 0, ptr %12, align 8
  %15 = ptrtoint ptr %.022 to i64
  %16 = sub i64 %15, %4
  %17 = icmp sgt i64 %16, 0
  br i1 %17, label %.lr.ph.preheader.i.i.i.i.i, label %_ZSt13move_backwardIPN12_GLOBAL__N_19ChainElemES2_ET0_T_S4_S3_.exit

.lr.ph.preheader.i.i.i.i.i:                       ; preds = %9
  %18 = getelementptr inbounds i8, ptr %.pn21, i64 48
  %19 = udiv exact i64 %16, 24
  br label %.lr.ph.i.i.i.i.i

.lr.ph.i.i.i.i.i:                                 ; preds = %_ZN12_GLOBAL__N_19ChainElemaSEOS0_.exit.i.i.i.i.i, %.lr.ph.preheader.i.i.i.i.i
  %.010.i.i.i.i.i = phi i64 [ %35, %_ZN12_GLOBAL__N_19ChainElemaSEOS0_.exit.i.i.i.i.i ], [ %19, %.lr.ph.preheader.i.i.i.i.i ]
  %.069.i.i.i.i.i = phi ptr [ %21, %_ZN12_GLOBAL__N_19ChainElemaSEOS0_.exit.i.i.i.i.i ], [ %18, %.lr.ph.preheader.i.i.i.i.i ]
  %.078.i.i.i.i.i = phi ptr [ %20, %_ZN12_GLOBAL__N_19ChainElemaSEOS0_.exit.i.i.i.i.i ], [ %.022, %.lr.ph.preheader.i.i.i.i.i ]
  %20 = getelementptr inbounds i8, ptr %.078.i.i.i.i.i, i64 -24
  %21 = getelementptr inbounds i8, ptr %.069.i.i.i.i.i, i64 -24
  %22 = load ptr, ptr %20, align 8
  store ptr %22, ptr %21, align 8
  %23 = getelementptr inbounds i8, ptr %.069.i.i.i.i.i, i64 -16
  %24 = getelementptr inbounds i8, ptr %.069.i.i.i.i.i, i64 -8
  %25 = load i32, ptr %24, align 8
  %26 = icmp ult i32 %25, 65
  br i1 %26, label %_ZN12_GLOBAL__N_19ChainElemaSEOS0_.exit.i.i.i.i.i, label %27

27:                                               ; preds = %.lr.ph.i.i.i.i.i
  %28 = load ptr, ptr %23, align 8
  %29 = icmp eq ptr %28, null
  br i1 %29, label %_ZN12_GLOBAL__N_19ChainElemaSEOS0_.exit.i.i.i.i.i, label %30

30:                                               ; preds = %27
  tail call void @_ZdaPv(ptr noundef nonnull %28) #21
  br label %_ZN12_GLOBAL__N_19ChainElemaSEOS0_.exit.i.i.i.i.i

_ZN12_GLOBAL__N_19ChainElemaSEOS0_.exit.i.i.i.i.i: ; preds = %30, %27, %.lr.ph.i.i.i.i.i
  %31 = getelementptr inbounds i8, ptr %.078.i.i.i.i.i, i64 -16
  %32 = load i64, ptr %31, align 8
  store i64 %32, ptr %23, align 8
  %33 = getelementptr inbounds i8, ptr %.078.i.i.i.i.i, i64 -8
  %34 = load i32, ptr %33, align 8
  store i32 %34, ptr %24, align 8
  store i32 0, ptr %33, align 8
  %35 = add nsw i64 %.010.i.i.i.i.i, -1
  %36 = icmp sgt i64 %.010.i.i.i.i.i, 1
  br i1 %36, label %.lr.ph.i.i.i.i.i, label %_ZSt13move_backwardIPN12_GLOBAL__N_19ChainElemES2_ET0_T_S4_S3_.exit, !llvm.loop !137

_ZSt13move_backwardIPN12_GLOBAL__N_19ChainElemES2_ET0_T_S4_S3_.exit: ; preds = %_ZN12_GLOBAL__N_19ChainElemaSEOS0_.exit.i.i.i.i.i, %9
  store ptr %10, ptr %0, align 8
  %37 = load i32, ptr %6, align 8
  %38 = icmp ult i32 %37, 65
  br i1 %38, label %_ZN12_GLOBAL__N_19ChainElemD2Ev.exit, label %39

39:                                               ; preds = %_ZSt13move_backwardIPN12_GLOBAL__N_19ChainElemES2_ET0_T_S4_S3_.exit
  %40 = load ptr, ptr %5, align 8
  %41 = icmp eq ptr %40, null
  br i1 %41, label %_ZN12_GLOBAL__N_19ChainElemD2Ev.exit, label %42

42:                                               ; preds = %39
  tail call void @_ZdaPv(ptr noundef nonnull %40) #21
  br label %_ZN12_GLOBAL__N_19ChainElemD2Ev.exit

_ZN12_GLOBAL__N_19ChainElemD2Ev.exit:             ; preds = %42, %39, %_ZSt13move_backwardIPN12_GLOBAL__N_19ChainElemES2_ET0_T_S4_S3_.exit
  store i64 %14, ptr %5, align 8
  store i32 %13, ptr %6, align 8
  br label %44

43:                                               ; preds = %7
  tail call fastcc void @"_ZSt25__unguarded_linear_insertIPN12_GLOBAL__N_19ChainElemEN9__gnu_cxx5__ops14_Val_comp_iterIZNS0_18sortChainInBBOrderERN4llvm11SmallVectorIS1_Lj1EEEE3$_0EEEvT_T0_"(ptr noundef nonnull %.022)
  br label %44

44:                                               ; preds = %_ZN12_GLOBAL__N_19ChainElemD2Ev.exit, %43
  %.0 = getelementptr inbounds i8, ptr %.022, i64 24
  %.not = icmp eq ptr %.0, %1
  br i1 %.not, label %.loopexit, label %7, !llvm.loop !218

.loopexit:                                        ; preds = %44, %.preheader, %2
  ret void
}